target datalayout = "e-m:e-p270:32:32-p271:32:32-p272:64:64-i64:64-i128:128-f80:128-n8:16:32:64-S128"
target triple = "x86_64-pc-linux-gnu"

%struct.LOCKTAG = type { i32, i32, i32, i16, i8, i8 }
%struct.xl_standby_lock = type { i32, i32, i32 }
%struct.RecoveryLockXidEntry = type { i32, ptr }
%struct.RecoveryLockEntry = type { %struct.xl_standby_lock, ptr }

@RecoveryLockHash = internal global ptr null, align 8
@RecoveryLockXidHash = internal global ptr null, align 8
@.str.7 = private unnamed_addr constant [10 x i8] c"standby.c\00", align 1
@.str.11 = private unnamed_addr constant [35 x i8] c"adding recovery lock: db %u rel %u\00", align 1
@__func__.StandbyAcquireAccessExclusiveLock = private unnamed_addr constant [34 x i8] c"StandbyAcquireAccessExclusiveLock\00", align 1

; Function Attrs: nounwind uwtable
define dso_local void @StandbyAcquireAccessExclusiveLock(i32 noundef %0, i32 noundef %1, i32 noundef %2) #0 {
  %4 = alloca i32, align 4
  %5 = alloca i32, align 4
  %6 = alloca i32, align 4
  %7 = alloca ptr, align 8
  %8 = alloca ptr, align 8
  %9 = alloca %struct.xl_standby_lock, align 4
  %10 = alloca %struct.LOCKTAG, align 4
  %11 = alloca i8, align 1
  %12 = alloca i32, align 4
  store i32 %0, ptr %4, align 4
  store i32 %1, ptr %5, align 4
  store i32 %2, ptr %6, align 4
  call void @llvm.lifetime.start.p0(i64 8, ptr %7) #8
  call void @llvm.lifetime.start.p0(i64 8, ptr %8) #8
  call void @llvm.lifetime.start.p0(i64 12, ptr %9) #8
  call void @llvm.lifetime.start.p0(i64 16, ptr %10) #8
  call void @llvm.lifetime.start.p0(i64 1, ptr %11) #8
  %13 = load i32, ptr %4, align 4
  %14 = icmp ne i32 %13, 0
  br i1 %14, label %15, label %21

15:                                               ; preds = %3
  %16 = load i32, ptr %4, align 4
  %17 = call zeroext i1 @TransactionIdDidCommit(i32 noundef %16)
  br i1 %17, label %21, label %18

18:                                               ; preds = %15
  %19 = load i32, ptr %4, align 4
  %20 = call zeroext i1 @TransactionIdDidAbort(i32 noundef %19)
  br i1 %20, label %21, label %22

21:                                               ; preds = %18, %15, %3
  store i32 1, ptr %12, align 4
  br label %72

22:                                               ; preds = %18
  br label %23

23:                                               ; preds = %22
  br i1 false, label %24, label %26

24:                                               ; preds = %23
  %25 = call zeroext i1 @errstart_cold(i32 noundef 11, ptr noundef null) #9
  br i1 %25, label %28, label %32

26:                                               ; preds = %23
  %27 = call zeroext i1 @errstart(i32 noundef 11, ptr noundef null)
  br i1 %27, label %28, label %32

28:                                               ; preds = %26, %24
  %29 = load i32, ptr %5, align 4
  %30 = load i32, ptr %6, align 4
  %31 = call i32 (ptr, ...) @errmsg_internal(ptr noundef @.str.11, i32 noundef %29, i32 noundef %30)
  call void @errfinish(ptr noundef @.str.7, i32 noundef 999, ptr noundef @__func__.StandbyAcquireAccessExclusiveLock)
  br label %32

32:                                               ; preds = %28, %26, %24
  br label %33

33:                                               ; preds = %32
  br label %34

34:                                               ; preds = %33
  %35 = load ptr, ptr @RecoveryLockXidHash, align 8
  %36 = call ptr @hash_search(ptr noundef %35, ptr noundef %4, i32 noundef 1, ptr noundef %11)
  store ptr %36, ptr %7, align 8
  %37 = load i8, ptr %11, align 1, !range !7, !noundef !8
  %38 = trunc i8 %37 to i1
  br i1 %38, label %42, label %39

39:                                               ; preds = %34
  %40 = load ptr, ptr %7, align 8
  %41 = getelementptr inbounds nuw %struct.RecoveryLockXidEntry, ptr %40, i32 0, i32 1
  store ptr null, ptr %41, align 8
  br label %42

42:                                               ; preds = %39, %34
  %43 = load i32, ptr %4, align 4
  %44 = getelementptr inbounds nuw %struct.xl_standby_lock, ptr %9, i32 0, i32 0
  store i32 %43, ptr %44, align 4
  %45 = load i32, ptr %5, align 4
  %46 = getelementptr inbounds nuw %struct.xl_standby_lock, ptr %9, i32 0, i32 1
  store i32 %45, ptr %46, align 4
  %47 = load i32, ptr %6, align 4
  %48 = getelementptr inbounds nuw %struct.xl_standby_lock, ptr %9, i32 0, i32 2
  store i32 %47, ptr %48, align 4
  %49 = load ptr, ptr @RecoveryLockHash, align 8
  %50 = call ptr @hash_search(ptr noundef %49, ptr noundef %9, i32 noundef 1, ptr noundef %11)
  store ptr %50, ptr %8, align 8
  %51 = load i8, ptr %11, align 1, !range !7, !noundef !8
  %52 = trunc i8 %51 to i1
  br i1 %52, label %71, label %53

53:                                               ; preds = %42
  %54 = load ptr, ptr %7, align 8
  %55 = getelementptr inbounds nuw %struct.RecoveryLockXidEntry, ptr %54, i32 0, i32 1
  %56 = load ptr, ptr %55, align 8
  %57 = load ptr, ptr %8, align 8
  %58 = getelementptr inbounds nuw %struct.RecoveryLockEntry, ptr %57, i32 0, i32 1
  store ptr %56, ptr %58, align 8
  %59 = load ptr, ptr %8, align 8
  %60 = load ptr, ptr %7, align 8
  %61 = getelementptr inbounds nuw %struct.RecoveryLockXidEntry, ptr %60, i32 0, i32 1
  store ptr %59, ptr %61, align 8
  %62 = load i32, ptr %5, align 4
  %63 = getelementptr inbounds nuw %struct.LOCKTAG, ptr %10, i32 0, i32 0
  store i32 %62, ptr %63, align 4
  %64 = load i32, ptr %6, align 4
  %65 = getelementptr inbounds nuw %struct.LOCKTAG, ptr %10, i32 0, i32 1
  store i32 %64, ptr %65, align 4
  %66 = getelementptr inbounds nuw %struct.LOCKTAG, ptr %10, i32 0, i32 2
  store i32 0, ptr %66, align 4
  %67 = getelementptr inbounds nuw %struct.LOCKTAG, ptr %10, i32 0, i32 3
  store i16 0, ptr %67, align 4
  %68 = getelementptr inbounds nuw %struct.LOCKTAG, ptr %10, i32 0, i32 4
  store i8 0, ptr %68, align 2
  %69 = getelementptr inbounds nuw %struct.LOCKTAG, ptr %10, i32 0, i32 5
  store i8 1, ptr %69, align 1
  %70 = call i32 @LockAcquire(ptr noundef %10, i32 noundef 8, i1 noundef zeroext true, i1 noundef zeroext false)
  br label %71

71:                                               ; preds = %53, %42
  store i32 0, ptr %12, align 4
  br label %72

72:                                               ; preds = %71, %21
  call void @llvm.lifetime.end.p0(i64 1, ptr %11) #8
  call void @llvm.lifetime.end.p0(i64 16, ptr %10) #8
  call void @llvm.lifetime.end.p0(i64 12, ptr %9) #8
  call void @llvm.lifetime.end.p0(i64 8, ptr %8) #8
  call void @llvm.lifetime.end.p0(i64 8, ptr %7) #8
  %73 = load i32, ptr %12, align 4
  switch i32 %73, label %75 [
    i32 0, label %74
    i32 1, label %74
  ]

74:                                               ; preds = %72, %72
  ret void

75:                                               ; preds = %72
  unreachable
}