; Function Attrs: nounwind uwtable
define dso_local void @StandbyAcquireAccessExclusiveLock(i32 noundef %0, i32 noundef %1, i32 noundef %2) local_unnamed_addr #0 {
  %4 = alloca i32, align 4
  %5 = alloca %struct.xl_standby_lock, align 4
  %6 = alloca %struct.LOCKTAG, align 4
  %7 = alloca i8, align 1
  store i32 %0, ptr %4, align 4
  call void @llvm.lifetime.start.p0(i64 12, ptr nonnull %5) #7
  call void @llvm.lifetime.start.p0(i64 16, ptr nonnull %6) #7
  call void @llvm.lifetime.start.p0(i64 1, ptr nonnull %7) #7
  %.not = icmp eq i32 %0, 0
  br i1 %.not, label %41, label %8

8:                                                ; preds = %3
  %9 = tail call zeroext i1 @TransactionIdDidCommit(i32 noundef %0) #7
  br i1 %9, label %41, label %10

10:                                               ; preds = %8
  %11 = tail call zeroext i1 @TransactionIdDidAbort(i32 noundef %0) #7
  br i1 %11, label %41, label %12

12:                                               ; preds = %10
  %13 = tail call zeroext i1 @errstart(i32 noundef 11, ptr noundef null) #7
  br i1 %13, label %14, label %16

14:                                               ; preds = %12
  %15 = tail call i32 (ptr, ...) @errmsg_internal(ptr noundef nonnull @.str.11, i32 noundef %1, i32 noundef %2) #7
  tail call void @errfinish(ptr noundef nonnull @.str.7, i32 noundef 999, ptr noundef nonnull @__func__.StandbyAcquireAccessExclusiveLock) #7
  br label %16

16:                                               ; preds = %14, %12
  %17 = load ptr, ptr @RecoveryLockXidHash, align 8
  %18 = call ptr @hash_search(ptr noundef %17, ptr noundef nonnull %4, i32 noundef 1, ptr noundef nonnull %7) #7
  %19 = load i8, ptr %7, align 1, !range !7, !noundef !8
  %20 = trunc nuw i8 %19 to i1
  br i1 %20, label %23, label %21

21:                                               ; preds = %16
  %22 = getelementptr inbounds nuw i8, ptr %18, i64 8
  store ptr null, ptr %22, align 8
  br label %23

23:                                               ; preds = %21, %16
  %24 = load i32, ptr %4, align 4
  store i32 %24, ptr %5, align 4
  %25 = getelementptr inbounds nuw i8, ptr %5, i64 4
  store i32 %1, ptr %25, align 4
  %26 = getelementptr inbounds nuw i8, ptr %5, i64 8
  store i32 %2, ptr %26, align 4
  %27 = load ptr, ptr @RecoveryLockHash, align 8
  %28 = call ptr @hash_search(ptr noundef %27, ptr noundef nonnull %5, i32 noundef 1, ptr noundef nonnull %7) #7
  %29 = load i8, ptr %7, align 1, !range !7, !noundef !8
  %30 = trunc nuw i8 %29 to i1
  br i1 %30, label %41, label %31

31:                                               ; preds = %23
  %32 = getelementptr inbounds nuw i8, ptr %18, i64 8
  %33 = load ptr, ptr %32, align 8
  %34 = getelementptr inbounds nuw i8, ptr %28, i64 16
  store ptr %33, ptr %34, align 8
  store ptr %28, ptr %32, align 8
  store i32 %1, ptr %6, align 4
  %35 = getelementptr inbounds nuw i8, ptr %6, i64 4
  store i32 %2, ptr %35, align 4
  %36 = getelementptr inbounds nuw i8, ptr %6, i64 8
  store i32 0, ptr %36, align 4
  %37 = getelementptr inbounds nuw i8, ptr %6, i64 12
  store i16 0, ptr %37, align 4
  %38 = getelementptr inbounds nuw i8, ptr %6, i64 14
  store i8 0, ptr %38, align 2
  %39 = getelementptr inbounds nuw i8, ptr %6, i64 15
  store i8 1, ptr %39, align 1
  %40 = call i32 @LockAcquire(ptr noundef nonnull %6, i32 noundef 8, i1 noundef zeroext true, i1 noundef zeroext false) #7
  br label %41

41:                                               ; preds = %23, %31, %3, %8, %10
  call void @llvm.lifetime.end.p0(i64 1, ptr nonnull %7) #7
  call void @llvm.lifetime.end.p0(i64 16, ptr nonnull %6) #7
  call void @llvm.lifetime.end.p0(i64 12, ptr nonnull %5) #7
  ret void
}